; Function Attrs: mustprogress uwtable
define void @_ZN7rocksdb17BaseDeltaIterator11SeekForPrevERKNS_5SliceE(ptr noundef nonnull align 8 dereferenceable(200) initializes((40, 41), (48, 54), (160, 176)) %0, ptr noundef nonnull align 8 dereferenceable(16) %1) unnamed_addr #4 align 2 {
  %3 = getelementptr inbounds nuw i8, ptr %0, i64 40
  store i8 0, ptr %3, align 8, !tbaa !20
  %4 = getelementptr inbounds nuw i8, ptr %0, i64 72
  %5 = load ptr, ptr %4, align 8, !tbaa !99
  %6 = load ptr, ptr %5, align 8, !tbaa !18
  %7 = getelementptr inbounds nuw i8, ptr %6, i64 48
  %8 = load ptr, ptr %7, align 8
  tail call void %8(ptr noundef nonnull align 8 dereferenceable(40) %5, ptr noundef nonnull align 8 dereferenceable(16) %1)
  %9 = getelementptr inbounds nuw i8, ptr %0, i64 80
  %10 = load ptr, ptr %9, align 8, !tbaa !100
  tail call void @_ZN7rocksdb16WBWIIteratorImpl11SeekForPrevERKNS_5SliceE(ptr noundef nonnull align 8 dereferenceable(72) %10, ptr noundef nonnull align 8 dereferenceable(16) %1)
  tail call void @_ZN7rocksdb17BaseDeltaIterator13UpdateCurrentEv(ptr noundef nonnull align 8 dereferenceable(200) %0)
  ret void
}